target datalayout = "e-m:e-p270:32:32-p271:32:32-p272:64:64-i64:64-i128:128-f80:128-n8:16:32:64-S128"
target triple = "x86_64-pc-linux-gnu"

; Function Attrs: inlinehint mustprogress nounwind uwtable
define internal noundef signext i8 @_ZL9U_FAILURE10UErrorCode(i32 noundef %0) #2 {
  %2 = alloca i32, align 4
  store i32 %0, ptr %2, align 4, !tbaa !15
  %3 = load i32, ptr %2, align 4, !tbaa !15
  %4 = icmp sgt i32 %3, 0
  %5 = zext i1 %4 to i8
  ret i8 %5
}

; Function Attrs: mustprogress uwtable
define ptr @uplrules_getKeywords_77(ptr noundef %0, ptr noundef %1) #1 {
  %3 = alloca ptr, align 8
  %4 = alloca ptr, align 8
  %5 = alloca ptr, align 8
  %6 = alloca ptr, align 8
  %7 = alloca i32, align 4
  %8 = alloca ptr, align 8
  store ptr %0, ptr %4, align 8, !tbaa !25
  store ptr %1, ptr %5, align 8, !tbaa !22
  %9 = load ptr, ptr %5, align 8, !tbaa !22
  %10 = load i32, ptr %9, align 4, !tbaa !15
  %11 = call noundef signext i8 @_ZL9U_FAILURE10UErrorCode(i32 noundef %10)
  %12 = icmp ne i8 %11, 0
  br i1 %12, label %13, label %14

13:                                               ; preds = %2
  store ptr null, ptr %3, align 8
  br label %40

14:                                               ; preds = %2
  call void @llvm.lifetime.start.p0(i64 8, ptr %6) #11
  %15 = load ptr, ptr %4, align 8, !tbaa !25
  store ptr %15, ptr %6, align 8, !tbaa !48
  %16 = load ptr, ptr %6, align 8, !tbaa !48
  %17 = icmp eq ptr %16, null
  br i1 %17, label %18, label %20

18:                                               ; preds = %14
  %19 = load ptr, ptr %5, align 8, !tbaa !22
  store i32 1, ptr %19, align 4, !tbaa !15
  store ptr null, ptr %3, align 8
  store i32 1, ptr %7, align 4
  br label %39

20:                                               ; preds = %14
  call void @llvm.lifetime.start.p0(i64 8, ptr %8) #11
  %21 = load ptr, ptr %6, align 8, !tbaa !48
  %22 = load ptr, ptr %5, align 8, !tbaa !22
  %23 = call noundef ptr @_ZNK6icu_7711PluralRules11getKeywordsER10UErrorCode(ptr noundef nonnull align 8 dereferenceable(28) %21, ptr noundef nonnull align 4 dereferenceable(4) %22)
  store ptr %23, ptr %8, align 8, !tbaa !56
  %24 = load ptr, ptr %5, align 8, !tbaa !22
  %25 = load i32, ptr %24, align 4, !tbaa !15
  %26 = call noundef signext i8 @_ZL9U_FAILURE10UErrorCode(i32 noundef %25)
  %27 = icmp ne i8 %26, 0
  br i1 %27, label %28, label %29

28:                                               ; preds = %20
  store ptr null, ptr %3, align 8
  store i32 1, ptr %7, align 4
  br label %38

29:                                               ; preds = %20
  %30 = load ptr, ptr %8, align 8, !tbaa !56
  %31 = icmp eq ptr %30, null
  br i1 %31, label %32, label %34

32:                                               ; preds = %29
  %33 = load ptr, ptr %5, align 8, !tbaa !22
  store i32 7, ptr %33, align 4, !tbaa !15
  store ptr null, ptr %3, align 8
  store i32 1, ptr %7, align 4
  br label %38

34:                                               ; preds = %29
  %35 = load ptr, ptr %8, align 8, !tbaa !56
  %36 = load ptr, ptr %5, align 8, !tbaa !22
  %37 = call ptr @uenum_openFromStringEnumeration_77(ptr noundef %35, ptr noundef %36)
  store ptr %37, ptr %3, align 8
  store i32 1, ptr %7, align 4
  br label %38

38:                                               ; preds = %34, %32, %28
  call void @llvm.lifetime.end.p0(i64 8, ptr %8) #11
  br label %39

39:                                               ; preds = %38, %18
  call void @llvm.lifetime.end.p0(i64 8, ptr %6) #11
  br label %40

40:                                               ; preds = %39, %13
  %41 = load ptr, ptr %3, align 8
  ret ptr %41
}