; Function Attrs: mustprogress uwtable
define ptr @uplrules_getKeywords_77(ptr noundef %0, ptr noundef %1) local_unnamed_addr #1 {
  %3 = load i32, ptr %1, align 4, !tbaa !13
  %4 = icmp slt i32 %3, 1
  br i1 %4, label %5, label %17

5:                                                ; preds = %2
  %6 = icmp eq ptr %0, null
  br i1 %6, label %7, label %8

7:                                                ; preds = %5
  store i32 1, ptr %1, align 4, !tbaa !13
  br label %17

8:                                                ; preds = %5
  %9 = tail call noundef ptr @_ZNK6icu_7711PluralRules11getKeywordsER10UErrorCode(ptr noundef nonnull align 8 dereferenceable(28) %0, ptr noundef nonnull align 4 dereferenceable(4) %1)
  %10 = load i32, ptr %1, align 4, !tbaa !13
  %11 = icmp slt i32 %10, 1
  br i1 %11, label %12, label %17

12:                                               ; preds = %8
  %13 = icmp eq ptr %9, null
  br i1 %13, label %14, label %15

14:                                               ; preds = %12
  store i32 7, ptr %1, align 4, !tbaa !13
  br label %17

15:                                               ; preds = %12
  %16 = tail call ptr @uenum_openFromStringEnumeration_77(ptr noundef nonnull %9, ptr noundef nonnull %1)
  br label %17

17:                                               ; preds = %7, %8, %15, %14, %2
  %.0 = phi ptr [ null, %2 ], [ null, %7 ], [ null, %14 ], [ %16, %15 ], [ null, %8 ]
  ret ptr %.0
}